Certificate:
    Data:
        Version: 3 (0x2)
        Serial Number: 6 (0x6)
    Signature Algorithm: md5WithRSAEncryption
        Issuer: C=MX, ST=Tabasco, L=Villahermosa, O=SIESM, OU=Libersoft, CN=siesm_/name=siesm_1/emailAddress=plasticos_y_derivados@hotmail.com
        Validity
            Not Before: Aug 13 02:14:20 2015 GMT
            Not After : Aug 10 02:14:20 2025 GMT
        Subject: C=MX, ST=Tabasco, L=Villahermosa, O=SIESM, OU=Libersoft, CN=siesm:/name=siesm_1/emailAddress=liber@hotmail.com
        Subject Public Key Info:
            Public Key Algorithm: rsaEncryption
                Public-Key: (1024 bit)
                Modulus:
                    00:ea:f1:ca:d7:5f:3f:0d:79:4d:61:e6:c3:e3:85:
                    67:aa:c4:d4:1e:13:d0:0f:e6:a5:f3:9d:4a:e7:a1:
                    b9:ba:bc:59:e7:57:52:05:ca:67:a6:82:9a:41:5e:
                    2c:13:b7:64:16:bc:14:80:92:0c:db:f5:51:61:7c:
                    64:75:85:70:a4:c8:d0:6c:3c:76:de:63:78:25:b9:
                    f0:a6:2d:13:76:bc:92:8e:42:6a:c4:2b:87:d5:f3:
                    05:1e:55:70:93:b7:f0:2a:9a:b6:f8:95:b6:93:03:
                    14:04:ed:ca:c0:c0:5e:09:39:d0:93:f9:95:8c:40:
                    4d:e4:42:73:23:df:a4:8a:6d
                Exponent: 65537 (0x10001)
        X509v3 extensions:
            X509v3 Basic Constraints: 
                CA:FALSE
            Netscape Comment: 
                Easy-RSA Generated Certificate
            X509v3 Subject Key Identifier: 
                AB:10:D6:82:48:B1:6C:12:E0:13:F4:91:A8:B5:3A:67:06:2E:FC:44
            X509v3 Authority Key Identifier: 
                keyid:40:72:9B:9A:BE:D7:58:FB:83:6A:13:E4:E2:9C:A6:C6:C1:D3:04:15
                DirName:/C=MX/ST=Tabasco/L=Villahermosa/O=SIESM/OU=Libersoft/CN=siesm_/name=siesm_1/emailAddress=plasticos_y_derivados@hotmail.com
                serial:FE:18:5D:6D:D4:41:06:8D

            X509v3 Extended Key Usage: 
                TLS Web Client Authentication
            X509v3 Key Usage: 
                Digital Signature
    Signature Algorithm: md5WithRSAEncryption
         65:04:a8:0f:c7:57:d9:6d:4a:36:91:04:05:1e:d8:d6:5e:a5:
         56:cf:4a:72:d6:b9:3c:3f:cb:f8:4c:09:3a:09:5f:ef:5d:72:
         b9:e1:49:6b:3f:96:f2:a7:e3:2c:95:e7:25:24:7a:2c:0b:98:
         ee:6c:62:80:77:2c:8e:4d:ce:6b:60:56:fc:5c:3e:64:7e:87:
         1b:5b:e5:ca:31:31:73:18:5a:28:b4:cd:90:ca:fa:9a:be:b8:
         ab:f7:e0:6f:d5:7c:a0:d8:0c:80:97:ec:05:bb:e0:24:d8:62:
         67:5b:a5:3f:90:71:26:a2:3f:bf:35:ac:0a:86:63:fb:ba:f2:
         50:f0
-----BEGIN CERTIFICATE-----
MIIELjCCA5egAwIBAgIBBjANBgkqhkiG9w0BAQQFADCBrzELMAkGA1UEBhMCTVgx
EDAOBgNVBAgTB1RhYmFzY28xFTATBgNVBAcTDFZpbGxhaGVybW9zYTEOMAwGA1UE
ChMFU0lFU00xEjAQBgNVBAsTCUxpYmVyc29mdDEPMA0GA1UEAxQGc2llc21fMRAw
DgYDVQQpFAdzaWVzbV8xMTAwLgYJKoZIhvcNAQkBFiFwbGFzdGljb3NfeV9kZXJp
dmFkb3NAaG90bWFpbC5jb20wHhcNMTUwODEzMDIxNDIwWhcNMjUwODEwMDIxNDIw
WjCBnzELMAkGA1UEBhMCTVgxEDAOBgNVBAgTB1RhYmFzY28xFTATBgNVBAcTDFZp
bGxhaGVybW9zYTEOMAwGA1UEChMFU0lFU00xEjAQBgNVBAsTCUxpYmVyc29mdDEP
MA0GA1UEAxMGc2llc206MRAwDgYDVQQpFAdzaWVzbV8xMSAwHgYJKoZIhvcNAQkB
FhFsaWJlckBob3RtYWlsLmNvbTCBnzANBgkqhkiG9w0BAQEFAAOBjQAwgYkCgYEA
6vHK118/DXlNYebD44VnqsTUHhPQD+al851K56G5urxZ51dSBcpnpoKaQV4sE7dk
FrwUgJIM2/VRYXxkdYVwpMjQbDx23mN4Jbnwpi0TdrySjkJqxCuH1fMFHlVwk7fw
Kpq2+JW2kwMUBO3KwMBeCTnQk/mVjEBN5EJzI9+kim0CAwEAAaOCAWYwggFiMAkG
A1UdEwQCMAAwLQYJYIZIAYb4QgENBCAWHkVhc3ktUlNBIEdlbmVyYXRlZCBDZXJ0
aWZpY2F0ZTAdBgNVHQ4EFgQUqxDWgkixbBLgE/SRqLU6ZwYu/EQwgeQGA1UdIwSB
3DCB2YAUQHKbmr7XWPuDahPk4pymxsHTBBWhgbWkgbIwga8xCzAJBgNVBAYTAk1Y
MRAwDgYDVQQIEwdUYWJhc2NvMRUwEwYDVQQHEwxWaWxsYWhlcm1vc2ExDjAMBgNV
BAoTBVNJRVNNMRIwEAYDVQQLEwlMaWJlcnNvZnQxDzANBgNVBAMUBnNpZXNtXzEQ
MA4GA1UEKRQHc2llc21fMTEwMC4GCSqGSIb3DQEJARYhcGxhc3RpY29zX3lfZGVy
aXZhZG9zQGhvdG1haWwuY29tggkA/hhdbdRBBo0wEwYDVR0lBAwwCgYIKwYBBQUH
AwIwCwYDVR0PBAQDAgeAMA0GCSqGSIb3DQEBBAUAA4GBAGUEqA/HV9ltSjaRBAUe
2NZepVbPSnLWuTw/y/hMCToJX+9dcrnhSWs/lvKn4yyV5yUkeiwLmO5sYoB3LI5N
zmtgVvxcPmR+hxtb5coxMXMYWii0zZDK+pq+uKv34G/VfKDYDICX7AW74CTYYmdb
pT+QcSaiP781rAqGY/u68lDw
-----END CERTIFICATE-----
