Certificate:
    Data:
        Version: 3 (0x2)
        Serial Number: 8 (0x8)
    Signature Algorithm: md5WithRSAEncryption
        Issuer: C=MX, ST=Tabasco, L=Villahermosa, O=SIESM, OU=Libersoft, CN=siesm_/name=siesm_1/emailAddress=plasticos_y_derivados@hotmail.com
        Validity
            Not Before: Aug 13 02:17:17 2015 GMT
            Not After : Aug 10 02:17:17 2025 GMT
        Subject: C=MX, ST=Tabasco, L=Villahermosa, O=SIESM, OU=libersoft, CN=siems_/name=siesm_1/emailAddress=invitado2@hotmail.com
        Subject Public Key Info:
            Public Key Algorithm: rsaEncryption
                Public-Key: (1024 bit)
                Modulus:
                    00:b2:43:96:ae:c1:8a:22:77:2e:16:d6:5e:e2:94:
                    9e:7c:8d:9e:1b:9e:f3:f3:1a:e2:a9:45:1d:d7:44:
                    6f:fe:16:85:b7:04:f2:ca:81:45:62:7a:6a:bf:b5:
                    d0:4a:2d:aa:2f:97:58:97:97:d2:be:ac:0e:44:3a:
                    55:5e:d6:1c:b8:07:fe:2a:05:00:9d:08:1f:ef:9b:
                    3c:e4:43:d4:7f:ac:ef:ed:32:38:a6:32:a2:a1:5d:
                    9c:63:3f:ed:1e:7b:5a:c2:66:d7:ec:ce:2e:f1:ce:
                    15:f6:21:9c:17:33:42:d8:ff:2e:80:7b:44:2c:7e:
                    c8:3f:cd:31:53:2b:38:24:bd
                Exponent: 65537 (0x10001)
        X509v3 extensions:
            X509v3 Basic Constraints: 
                CA:FALSE
            Netscape Comment: 
                Easy-RSA Generated Certificate
            X509v3 Subject Key Identifier: 
                86:ED:C1:91:0E:65:4A:2A:E4:2F:08:93:01:04:C4:51:2A:DA:AC:69
            X509v3 Authority Key Identifier: 
                keyid:40:72:9B:9A:BE:D7:58:FB:83:6A:13:E4:E2:9C:A6:C6:C1:D3:04:15
                DirName:/C=MX/ST=Tabasco/L=Villahermosa/O=SIESM/OU=Libersoft/CN=siesm_/name=siesm_1/emailAddress=plasticos_y_derivados@hotmail.com
                serial:FE:18:5D:6D:D4:41:06:8D

            X509v3 Extended Key Usage: 
                TLS Web Client Authentication
            X509v3 Key Usage: 
                Digital Signature
    Signature Algorithm: md5WithRSAEncryption
         2e:33:b0:27:9c:14:c8:0a:71:de:b3:5a:70:37:4b:8d:bc:95:
         12:25:c9:43:ca:8e:2d:f5:f2:c6:2d:bd:9e:97:ca:c9:6e:2d:
         43:31:1f:f5:05:36:6d:43:b2:63:bf:e3:28:8e:f7:d3:85:65:
         1f:80:fd:33:9d:3c:9a:65:9a:e8:82:20:09:7b:e3:75:d9:71:
         f9:a5:3e:ad:5f:b5:d9:6b:fc:b7:0d:31:12:cd:c7:81:b4:8f:
         b5:94:94:e8:79:f3:b5:a4:50:8b:83:b3:fe:04:b0:1a:29:9c:
         ee:62:b8:09:01:36:cd:1b:36:fd:97:ec:79:b1:6e:6d:92:91:
         33:97
-----BEGIN CERTIFICATE-----
MIIEMjCCA5ugAwIBAgIBCDANBgkqhkiG9w0BAQQFADCBrzELMAkGA1UEBhMCTVgx
EDAOBgNVBAgTB1RhYmFzY28xFTATBgNVBAcTDFZpbGxhaGVybW9zYTEOMAwGA1UE
ChMFU0lFU00xEjAQBgNVBAsTCUxpYmVyc29mdDEPMA0GA1UEAxQGc2llc21fMRAw
DgYDVQQpFAdzaWVzbV8xMTAwLgYJKoZIhvcNAQkBFiFwbGFzdGljb3NfeV9kZXJp
dmFkb3NAaG90bWFpbC5jb20wHhcNMTUwODEzMDIxNzE3WhcNMjUwODEwMDIxNzE3
WjCBozELMAkGA1UEBhMCTVgxEDAOBgNVBAgTB1RhYmFzY28xFTATBgNVBAcTDFZp
bGxhaGVybW9zYTEOMAwGA1UEChMFU0lFU00xEjAQBgNVBAsTCWxpYmVyc29mdDEP
MA0GA1UEAxQGc2llbXNfMRAwDgYDVQQpFAdzaWVzbV8xMSQwIgYJKoZIhvcNAQkB
FhVpbnZpdGFkbzJAaG90bWFpbC5jb20wgZ8wDQYJKoZIhvcNAQEBBQADgY0AMIGJ
AoGBALJDlq7BiiJ3LhbWXuKUnnyNnhue8/Ma4qlFHddEb/4WhbcE8sqBRWJ6ar+1
0Eotqi+XWJeX0r6sDkQ6VV7WHLgH/ioFAJ0IH++bPORD1H+s7+0yOKYyoqFdnGM/
7R57WsJm1+zOLvHOFfYhnBczQtj/LoB7RCx+yD/NMVMrOCS9AgMBAAGjggFmMIIB
YjAJBgNVHRMEAjAAMC0GCWCGSAGG+EIBDQQgFh5FYXN5LVJTQSBHZW5lcmF0ZWQg
Q2VydGlmaWNhdGUwHQYDVR0OBBYEFIbtwZEOZUoq5C8IkwEExFEq2qxpMIHkBgNV
HSMEgdwwgdmAFEBym5q+11j7g2oT5OKcpsbB0wQVoYG1pIGyMIGvMQswCQYDVQQG
EwJNWDEQMA4GA1UECBMHVGFiYXNjbzEVMBMGA1UEBxMMVmlsbGFoZXJtb3NhMQ4w
DAYDVQQKEwVTSUVTTTESMBAGA1UECxMJTGliZXJzb2Z0MQ8wDQYDVQQDFAZzaWVz
bV8xEDAOBgNVBCkUB3NpZXNtXzExMDAuBgkqhkiG9w0BCQEWIXBsYXN0aWNvc195
X2Rlcml2YWRvc0Bob3RtYWlsLmNvbYIJAP4YXW3UQQaNMBMGA1UdJQQMMAoGCCsG
AQUFBwMCMAsGA1UdDwQEAwIHgDANBgkqhkiG9w0BAQQFAAOBgQAuM7AnnBTICnHe
s1pwN0uNvJUSJclDyo4t9fLGLb2el8rJbi1DMR/1BTZtQ7Jjv+MojvfThWUfgP0z
nTyaZZrogiAJe+N12XH5pT6tX7XZa/y3DTESzceBtI+1lJToefO1pFCLg7P+BLAa
KZzuYrgJATbNGzb9l+x5sW5tkpEzlw==
-----END CERTIFICATE-----
