Certificate:
    Data:
        Version: 3 (0x2)
        Serial Number: 1 (0x1)
    Signature Algorithm: md5WithRSAEncryption
        Issuer: C=MX, ST=Tabasco, L=Villahermosa, O=SIESM, OU=Libersoft, CN=siesm_/name=siesm_1/emailAddress=plasticos_y_derivados@hotmail.com
        Validity
            Not Before: Aug 13 02:01:21 2015 GMT
            Not After : Aug 10 02:01:21 2025 GMT
        Subject: C=MX, ST=Tabasco, L=Villahermosa, O=SIESM, OU=Libersoft, CN=siesm_/name=siesm_1/emailAddress=plasticos_y_derivados@hotmail.com
        Subject Public Key Info:
            Public Key Algorithm: rsaEncryption
                Public-Key: (1024 bit)
                Modulus:
                    00:d8:3f:8c:16:03:fc:8c:f3:4a:38:c9:06:2f:5f:
                    43:09:49:bd:cf:21:d4:68:3c:00:da:5d:6e:86:91:
                    95:47:30:9a:03:5f:2a:90:f0:4c:1f:9e:44:0c:8f:
                    2c:8d:25:e3:18:2e:2d:c4:f9:de:a0:89:fa:99:e0:
                    69:c3:7d:da:9f:9b:f5:42:6c:65:fc:cc:84:72:eb:
                    d5:91:b6:2b:d9:82:c4:34:c0:d7:cd:af:80:d4:cf:
                    42:59:0d:a5:57:84:53:bb:e8:75:88:d4:35:f2:be:
                    56:e5:93:b9:24:ce:1c:3c:07:b8:88:8c:36:19:60:
                    9f:e1:d0:be:a8:b6:10:f1:77
                Exponent: 65537 (0x10001)
        X509v3 extensions:
            X509v3 Basic Constraints: 
                CA:FALSE
            Netscape Cert Type: 
                SSL Server
            Netscape Comment: 
                Easy-RSA Generated Server Certificate
            X509v3 Subject Key Identifier: 
                74:E2:AA:F4:59:70:04:C4:2A:BC:1D:A9:D1:14:51:5F:00:BB:03:63
            X509v3 Authority Key Identifier: 
                keyid:40:72:9B:9A:BE:D7:58:FB:83:6A:13:E4:E2:9C:A6:C6:C1:D3:04:15
                DirName:/C=MX/ST=Tabasco/L=Villahermosa/O=SIESM/OU=Libersoft/CN=siesm_/name=siesm_1/emailAddress=plasticos_y_derivados@hotmail.com
                serial:FE:18:5D:6D:D4:41:06:8D

            X509v3 Extended Key Usage: 
                TLS Web Server Authentication
            X509v3 Key Usage: 
                Digital Signature, Key Encipherment
    Signature Algorithm: md5WithRSAEncryption
         a1:8e:eb:fc:2a:4d:c5:c6:b0:58:52:b8:23:ff:0d:ca:1b:d2:
         32:18:1c:6b:5d:64:cc:65:03:bc:24:cf:3d:f6:53:f1:da:7e:
         8c:43:7a:68:11:a2:5b:d5:73:1b:e4:6a:e8:78:3d:fd:07:bc:
         12:31:6a:49:1e:17:fb:cc:9d:c7:16:cd:ea:f8:5c:3a:e4:3d:
         70:4d:97:0b:a2:59:cb:c8:15:39:c1:5d:57:ce:f0:69:3e:dc:
         12:8a:8b:e8:f8:39:dc:fc:25:a7:52:12:70:71:9d:67:dd:6c:
         44:2e:e3:d7:48:93:42:00:b5:1c:7f:b8:77:30:c3:c2:8c:6b:
         2c:d8
-----BEGIN CERTIFICATE-----
MIIEWDCCA8GgAwIBAgIBATANBgkqhkiG9w0BAQQFADCBrzELMAkGA1UEBhMCTVgx
EDAOBgNVBAgTB1RhYmFzY28xFTATBgNVBAcTDFZpbGxhaGVybW9zYTEOMAwGA1UE
ChMFU0lFU00xEjAQBgNVBAsTCUxpYmVyc29mdDEPMA0GA1UEAxQGc2llc21fMRAw
DgYDVQQpFAdzaWVzbV8xMTAwLgYJKoZIhvcNAQkBFiFwbGFzdGljb3NfeV9kZXJp
dmFkb3NAaG90bWFpbC5jb20wHhcNMTUwODEzMDIwMTIxWhcNMjUwODEwMDIwMTIx
WjCBrzELMAkGA1UEBhMCTVgxEDAOBgNVBAgTB1RhYmFzY28xFTATBgNVBAcTDFZp
bGxhaGVybW9zYTEOMAwGA1UEChMFU0lFU00xEjAQBgNVBAsTCUxpYmVyc29mdDEP
MA0GA1UEAxQGc2llc21fMRAwDgYDVQQpFAdzaWVzbV8xMTAwLgYJKoZIhvcNAQkB
FiFwbGFzdGljb3NfeV9kZXJpdmFkb3NAaG90bWFpbC5jb20wgZ8wDQYJKoZIhvcN
AQEBBQADgY0AMIGJAoGBANg/jBYD/IzzSjjJBi9fQwlJvc8h1Gg8ANpdboaRlUcw
mgNfKpDwTB+eRAyPLI0l4xguLcT53qCJ+pngacN92p+b9UJsZfzMhHLr1ZG2K9mC
xDTA182vgNTPQlkNpVeEU7vodYjUNfK+VuWTuSTOHDwHuIiMNhlgn+HQvqi2EPF3
AgMBAAGjggGAMIIBfDAJBgNVHRMEAjAAMBEGCWCGSAGG+EIBAQQEAwIGQDA0Bglg
hkgBhvhCAQ0EJxYlRWFzeS1SU0EgR2VuZXJhdGVkIFNlcnZlciBDZXJ0aWZpY2F0
ZTAdBgNVHQ4EFgQUdOKq9FlwBMQqvB2p0RRRXwC7A2MwgeQGA1UdIwSB3DCB2YAU
QHKbmr7XWPuDahPk4pymxsHTBBWhgbWkgbIwga8xCzAJBgNVBAYTAk1YMRAwDgYD
VQQIEwdUYWJhc2NvMRUwEwYDVQQHEwxWaWxsYWhlcm1vc2ExDjAMBgNVBAoTBVNJ
RVNNMRIwEAYDVQQLEwlMaWJlcnNvZnQxDzANBgNVBAMUBnNpZXNtXzEQMA4GA1UE
KRQHc2llc21fMTEwMC4GCSqGSIb3DQEJARYhcGxhc3RpY29zX3lfZGVyaXZhZG9z
QGhvdG1haWwuY29tggkA/hhdbdRBBo0wEwYDVR0lBAwwCgYIKwYBBQUHAwEwCwYD
VR0PBAQDAgWgMA0GCSqGSIb3DQEBBAUAA4GBAKGO6/wqTcXGsFhSuCP/Dcob0jIY
HGtdZMxlA7wkzz32U/HafoxDemgRolvVcxvkauh4Pf0HvBIxakkeF/vMnccWzer4
XDrkPXBNlwuiWcvIFTnBXVfO8Gk+3BKKi+j4Odz8JadSEnBxnWfdbEQu49dIk0IA
tRx/uHcww8KMayzY
-----END CERTIFICATE-----
